; Function Attrs: nounwind uwtable
define hidden zeroext i1 @SDL_ScreenKeyboardShown_REAL(ptr noundef %0) local_unnamed_addr #0 {
  %2 = load ptr, ptr @_this, align 8
  %.not = icmp eq ptr %2, null
  br i1 %.not, label %3, label %5

3:                                                ; preds = %1
  %4 = tail call zeroext i1 (ptr, ...) @SDL_SetError_REAL(ptr noundef nonnull @.str.1) #19
  br label %15

5:                                                ; preds = %1
  %6 = tail call zeroext i1 @SDL_ObjectValid(ptr noundef %0, i32 noundef 1) #19
  br i1 %6, label %9, label %7

7:                                                ; preds = %5
  %8 = tail call zeroext i1 (ptr, ...) @SDL_SetError_REAL(ptr noundef nonnull @.str.20) #19
  br label %15

9:                                                ; preds = %5
  %10 = load ptr, ptr @_this, align 8
  %11 = getelementptr inbounds nuw i8, ptr %10, i64 656
  %12 = load ptr, ptr %11, align 8
  %.not4 = icmp eq ptr %12, null
  br i1 %.not4, label %15, label %13

13:                                               ; preds = %9
  %14 = tail call zeroext i1 %12(ptr noundef nonnull %10, ptr noundef %0) #19
  br label %15

15:                                               ; preds = %9, %13, %7, %3
  %.0 = phi i1 [ %14, %13 ], [ false, %7 ], [ false, %3 ], [ false, %9 ]
  ret i1 %.0
}